; Function Attrs: mustprogress nounwind uwtable
define hidden void @_ZNK8PhaseCCP9push_phisER16Unique_Node_ListPK4Node(ptr nocapture noundef nonnull readonly align 8 dereferenceable(2488) %0, ptr noundef nonnull align 8 dereferenceable(68) %1, ptr nocapture noundef readonly %2) local_unnamed_addr #0 align 2 {
  %4 = getelementptr inbounds i8, ptr %2, i64 44
  %5 = load i32, ptr %4, align 4
  %6 = and i32 %5, 63
  %7 = icmp eq i32 %6, 32
  br i1 %7, label %8, label %.loopexit

8:                                                ; preds = %3
  %9 = getelementptr inbounds i8, ptr %2, i64 16
  %10 = load ptr, ptr %9, align 8
  %11 = getelementptr inbounds i8, ptr %2, i64 32
  %12 = load i32, ptr %11, align 8
  %13 = zext i32 %12 to i64
  %14 = getelementptr inbounds ptr, ptr %10, i64 %13
  %.not = icmp eq i32 %12, 0
  br i1 %.not, label %.loopexit, label %.lr.ph

.lr.ph:                                           ; preds = %8
  %15 = getelementptr inbounds i8, ptr %0, i64 40
  %16 = getelementptr inbounds i8, ptr %1, i64 32
  %17 = getelementptr inbounds i8, ptr %1, i64 40
  %18 = getelementptr inbounds i8, ptr %1, i64 24
  %19 = getelementptr inbounds i8, ptr %1, i64 8
  %20 = getelementptr inbounds i8, ptr %1, i64 16
  br label %21

21:                                               ; preds = %.lr.ph, %_ZNK8PhaseCCP23push_if_not_bottom_typeER16Unique_Node_ListP4Node.exit
  %.08 = phi ptr [ %10, %.lr.ph ], [ %55, %_ZNK8PhaseCCP23push_if_not_bottom_typeER16Unique_Node_ListP4Node.exit ]
  %22 = load ptr, ptr %.08, align 8
  %23 = load ptr, ptr %22, align 8
  %24 = getelementptr inbounds i8, ptr %23, i64 40
  %25 = load ptr, ptr %24, align 8
  %26 = tail call noundef ptr %25(ptr noundef nonnull align 8 dereferenceable(52) %22) #16
  %27 = load ptr, ptr %15, align 8
  %28 = getelementptr inbounds i8, ptr %22, i64 40
  %29 = load i32, ptr %28, align 8
  %30 = getelementptr inbounds i8, ptr %27, i64 16
  %31 = load ptr, ptr %30, align 8
  %32 = zext i32 %29 to i64
  %33 = getelementptr inbounds ptr, ptr %31, i64 %32
  %34 = load ptr, ptr %33, align 8
  %.not.i = icmp eq ptr %26, %34
  br i1 %.not.i, label %_ZNK8PhaseCCP23push_if_not_bottom_typeER16Unique_Node_ListP4Node.exit, label %35

35:                                               ; preds = %21
  %36 = lshr i32 %29, 5
  %37 = load i32, ptr %16, align 8
  %.not.i.i.i = icmp ult i32 %36, %37
  br i1 %.not.i.i.i, label %_ZN9VectorSet8test_setEj.exit.i.i, label %38

38:                                               ; preds = %35
  tail call void @_ZN9VectorSet4growEj(ptr noundef nonnull align 8 dereferenceable(32) %16, i32 noundef %36) #16
  br label %_ZN9VectorSet8test_setEj.exit.i.i

_ZN9VectorSet8test_setEj.exit.i.i:                ; preds = %38, %35
  %39 = and i32 %29, 31
  %40 = shl nuw i32 1, %39
  %41 = load ptr, ptr %17, align 8
  %42 = zext nneg i32 %36 to i64
  %43 = getelementptr inbounds i32, ptr %41, i64 %42
  %44 = load i32, ptr %43, align 4
  %45 = or i32 %44, %40
  store i32 %45, ptr %43, align 4
  %46 = and i32 %44, %40
  %.not.i.i = icmp eq i32 %46, 0
  br i1 %.not.i.i, label %47, label %_ZNK8PhaseCCP23push_if_not_bottom_typeER16Unique_Node_ListP4Node.exit

47:                                               ; preds = %_ZN9VectorSet8test_setEj.exit.i.i
  %48 = load i32, ptr %18, align 8
  %49 = add i32 %48, 1
  store i32 %49, ptr %18, align 8
  %50 = load i32, ptr %19, align 8
  %.not.i.i.i.i = icmp ugt i32 %50, %48
  br i1 %.not.i.i.i.i, label %_ZN9Node_List4pushEP4Node.exit.i.i, label %51

51:                                               ; preds = %47
  tail call void @_ZN10Node_Array4growEj(ptr noundef nonnull align 8 dereferenceable(24) %1, i32 noundef %48) #16
  br label %_ZN9Node_List4pushEP4Node.exit.i.i

_ZN9Node_List4pushEP4Node.exit.i.i:               ; preds = %51, %47
  %52 = load ptr, ptr %20, align 8
  %53 = zext i32 %48 to i64
  %54 = getelementptr inbounds ptr, ptr %52, i64 %53
  store ptr %22, ptr %54, align 8
  br label %_ZNK8PhaseCCP23push_if_not_bottom_typeER16Unique_Node_ListP4Node.exit

_ZNK8PhaseCCP23push_if_not_bottom_typeER16Unique_Node_ListP4Node.exit: ; preds = %21, %_ZN9VectorSet8test_setEj.exit.i.i, %_ZN9Node_List4pushEP4Node.exit.i.i
  %55 = getelementptr inbounds i8, ptr %.08, i64 8
  %56 = icmp ult ptr %55, %14
  br i1 %56, label %21, label %.loopexit, !llvm.loop !54

.loopexit:                                        ; preds = %_ZNK8PhaseCCP23push_if_not_bottom_typeER16Unique_Node_ListP4Node.exit, %8, %3
  ret void
}